target datalayout = "e-m:e-p270:32:32-p271:32:32-p272:64:64-i64:64-i128:128-f80:128-n8:16:32:64-S128"
target triple = "x86_64-pc-linux-gnu"

%"class.std::basic_ostream" = type { ptr, %"class.std::basic_ios" }
%"class.std::basic_ios" = type { %"class.std::ios_base", ptr, i8, i8, ptr, ptr, ptr, ptr }
%"class.std::ios_base" = type { ptr, i64, i64, i32, i32, i32, ptr, %"struct.std::ios_base::_Words", [8 x %"struct.std::ios_base::_Words"], i32, ptr, %"class.std::locale" }
%"struct.std::ios_base::_Words" = type { ptr, i64 }
%"class.std::locale" = type { ptr }
%union.pthread_mutex_t = type { %struct.__pthread_mutex_s }
%struct.__pthread_mutex_s = type { i32, i32, i32, i32, i32, i16, i16, %struct.__pthread_internal_list }
%struct.__pthread_internal_list = type { ptr, ptr }
%"class.Stockfish::(anonymous namespace)::Logger" = type { %"class.std::basic_ofstream", %"struct.Stockfish::(anonymous namespace)::Tie", %"struct.Stockfish::(anonymous namespace)::Tie" }
%"class.std::basic_ofstream" = type { %"class.std::basic_ostream.base", %"class.std::basic_filebuf", %"class.std::basic_ios" }
%"class.std::basic_ostream.base" = type { ptr }
%"class.std::basic_filebuf" = type { %"class.std::basic_streambuf", %union.pthread_mutex_t, %"class.std::__basic_file", i32, %struct.__mbstate_t, %struct.__mbstate_t, %struct.__mbstate_t, ptr, i64, i8, i8, i8, i8, ptr, ptr, i8, ptr, ptr, i64, ptr, ptr }
%"class.std::basic_streambuf" = type { ptr, ptr, ptr, ptr, ptr, ptr, ptr, %"class.std::locale" }
%"class.std::__basic_file" = type <{ ptr, i8, [7 x i8] }>
%struct.__mbstate_t = type { i32, %union.anon.3 }
%union.anon.3 = type { i32 }
%"struct.Stockfish::(anonymous namespace)::Tie" = type { %"class.std::basic_streambuf", ptr, ptr }
%"class.std::basic_istream" = type { ptr, i64, %"class.std::basic_ios" }

@__dso_handle = external hidden global i8
@_ZSt4cerr = external global %"class.std::basic_ostream", align 8
@_ZZN9Stockfish12_GLOBAL__N_16Logger5startERKNSt7__cxx1112basic_stringIcSt11char_traitsIcESaIcEEEE1l = internal global %"class.Stockfish::(anonymous namespace)::Logger" zeroinitializer, align 8
@_ZGVZN9Stockfish12_GLOBAL__N_16Logger5startERKNSt7__cxx1112basic_stringIcSt11char_traitsIcESaIcEEEE1l = internal global i64 0, align 8
@_ZSt4cout = external global %"class.std::basic_ostream", align 8
@_ZSt3cin = external global %"class.std::basic_istream", align 8
@.str.34 = private unnamed_addr constant [31 x i8] c"Unable to open debug log file \00", align 1

; Function Attrs: mustprogress nounwind uwtable
define internal void @_ZN9Stockfish12_GLOBAL__N_16Logger5startERKNSt7__cxx1112basic_stringIcSt11char_traitsIcESaIcEEE(ptr noundef nonnull align 8 dereferenceable(32) %0) #4 align 2 {
  %2 = alloca ptr, align 8
  store ptr %0, ptr %2, align 8
  %3 = load atomic i8, ptr @_ZGVZN9Stockfish12_GLOBAL__N_16Logger5startERKNSt7__cxx1112basic_stringIcSt11char_traitsIcESaIcEEEE1l acquire, align 8
  %4 = icmp eq i8 %3, 0
  br i1 %4, label %5, label %10, !prof !10

5:                                                ; preds = %1
  %6 = call i32 @__cxa_guard_acquire(ptr @_ZGVZN9Stockfish12_GLOBAL__N_16Logger5startERKNSt7__cxx1112basic_stringIcSt11char_traitsIcESaIcEEEE1l) #3
  %7 = icmp ne i32 %6, 0
  br i1 %7, label %8, label %10

8:                                                ; preds = %5
  call void @_ZN9Stockfish12_GLOBAL__N_16LoggerC2Ev(ptr noundef nonnull align 8 dereferenceable(672) @_ZZN9Stockfish12_GLOBAL__N_16Logger5startERKNSt7__cxx1112basic_stringIcSt11char_traitsIcESaIcEEEE1l)
  %9 = call i32 @__cxa_atexit(ptr @_ZN9Stockfish12_GLOBAL__N_16LoggerD2Ev, ptr @_ZZN9Stockfish12_GLOBAL__N_16Logger5startERKNSt7__cxx1112basic_stringIcSt11char_traitsIcESaIcEEEE1l, ptr @__dso_handle) #3
  call void @__cxa_guard_release(ptr @_ZGVZN9Stockfish12_GLOBAL__N_16Logger5startERKNSt7__cxx1112basic_stringIcSt11char_traitsIcESaIcEEEE1l) #3
  br label %10

10:                                               ; preds = %8, %5, %1
  %11 = call noundef zeroext i1 @_ZNSt14basic_ofstreamIcSt11char_traitsIcEE7is_openEv(ptr noundef nonnull align 8 dereferenceable(248) @_ZZN9Stockfish12_GLOBAL__N_16Logger5startERKNSt7__cxx1112basic_stringIcSt11char_traitsIcESaIcEEEE1l)
  br i1 %11, label %12, label %25

12:                                               ; preds = %10
  %13 = load ptr, ptr @_ZSt4cout, align 8
  %14 = getelementptr i8, ptr %13, i64 -24
  %15 = load i64, ptr %14, align 8
  %16 = getelementptr inbounds i8, ptr @_ZSt4cout, i64 %15
  %17 = load ptr, ptr getelementptr inbounds (%"class.Stockfish::(anonymous namespace)::Logger", ptr @_ZZN9Stockfish12_GLOBAL__N_16Logger5startERKNSt7__cxx1112basic_stringIcSt11char_traitsIcESaIcEEEE1l, i32 0, i32 2, i32 1), align 8
  %18 = call noundef ptr @_ZNSt9basic_iosIcSt11char_traitsIcEE5rdbufEPSt15basic_streambufIcS1_E(ptr noundef nonnull align 8 dereferenceable(264) %16, ptr noundef %17)
  %19 = load ptr, ptr @_ZSt3cin, align 8
  %20 = getelementptr i8, ptr %19, i64 -24
  %21 = load i64, ptr %20, align 8
  %22 = getelementptr inbounds i8, ptr @_ZSt3cin, i64 %21
  %23 = load ptr, ptr getelementptr inbounds (%"class.Stockfish::(anonymous namespace)::Logger", ptr @_ZZN9Stockfish12_GLOBAL__N_16Logger5startERKNSt7__cxx1112basic_stringIcSt11char_traitsIcESaIcEEEE1l, i32 0, i32 1, i32 1), align 8
  %24 = call noundef ptr @_ZNSt9basic_iosIcSt11char_traitsIcEE5rdbufEPSt15basic_streambufIcS1_E(ptr noundef nonnull align 8 dereferenceable(264) %22, ptr noundef %23)
  call void @_ZNSt14basic_ofstreamIcSt11char_traitsIcEE5closeEv(ptr noundef nonnull align 8 dereferenceable(248) @_ZZN9Stockfish12_GLOBAL__N_16Logger5startERKNSt7__cxx1112basic_stringIcSt11char_traitsIcESaIcEEEE1l)
  br label %25

25:                                               ; preds = %12, %10
  %26 = load ptr, ptr %2, align 8
  %27 = call noundef zeroext i1 @_ZNKSt7__cxx1112basic_stringIcSt11char_traitsIcESaIcEE5emptyEv(ptr noundef nonnull align 8 dereferenceable(32) %26) #3
  br i1 %27, label %47, label %28

28:                                               ; preds = %25
  %29 = load ptr, ptr %2, align 8
  call void @_ZNSt14basic_ofstreamIcSt11char_traitsIcEE4openERKNSt7__cxx1112basic_stringIcS1_SaIcEEESt13_Ios_Openmode(ptr noundef nonnull align 8 dereferenceable(248) @_ZZN9Stockfish12_GLOBAL__N_16Logger5startERKNSt7__cxx1112basic_stringIcSt11char_traitsIcESaIcEEEE1l, ptr noundef nonnull align 8 dereferenceable(32) %29, i32 noundef 16)
  %30 = call noundef zeroext i1 @_ZNSt14basic_ofstreamIcSt11char_traitsIcEE7is_openEv(ptr noundef nonnull align 8 dereferenceable(248) @_ZZN9Stockfish12_GLOBAL__N_16Logger5startERKNSt7__cxx1112basic_stringIcSt11char_traitsIcESaIcEEEE1l)
  br i1 %30, label %36, label %31

31:                                               ; preds = %28
  %32 = call noundef nonnull align 8 dereferenceable(8) ptr @_ZStlsISt11char_traitsIcEERSt13basic_ostreamIcT_ES5_PKc(ptr noundef nonnull align 8 dereferenceable(8) @_ZSt4cerr, ptr noundef @.str.34)
  %33 = load ptr, ptr %2, align 8
  %34 = call noundef nonnull align 8 dereferenceable(8) ptr @_ZStlsIcSt11char_traitsIcESaIcEERSt13basic_ostreamIT_T0_ES7_RKNSt7__cxx1112basic_stringIS4_S5_T1_EE(ptr noundef nonnull align 8 dereferenceable(8) %32, ptr noundef nonnull align 8 dereferenceable(32) %33)
  %35 = call noundef nonnull align 8 dereferenceable(8) ptr @_ZNSolsEPFRSoS_E(ptr noundef nonnull align 8 dereferenceable(8) %34, ptr noundef @_ZSt4endlIcSt11char_traitsIcEERSt13basic_ostreamIT_T0_ES6_)
  call void @exit(i32 noundef 1) #14
  unreachable

36:                                               ; preds = %28
  %37 = load ptr, ptr @_ZSt3cin, align 8
  %38 = getelementptr i8, ptr %37, i64 -24
  %39 = load i64, ptr %38, align 8
  %40 = getelementptr inbounds i8, ptr @_ZSt3cin, i64 %39
  %41 = call noundef ptr @_ZNSt9basic_iosIcSt11char_traitsIcEE5rdbufEPSt15basic_streambufIcS1_E(ptr noundef nonnull align 8 dereferenceable(264) %40, ptr noundef getelementptr inbounds (%"class.Stockfish::(anonymous namespace)::Logger", ptr @_ZZN9Stockfish12_GLOBAL__N_16Logger5startERKNSt7__cxx1112basic_stringIcSt11char_traitsIcESaIcEEEE1l, i32 0, i32 1))
  %42 = load ptr, ptr @_ZSt4cout, align 8
  %43 = getelementptr i8, ptr %42, i64 -24
  %44 = load i64, ptr %43, align 8
  %45 = getelementptr inbounds i8, ptr @_ZSt4cout, i64 %44
  %46 = call noundef ptr @_ZNSt9basic_iosIcSt11char_traitsIcEE5rdbufEPSt15basic_streambufIcS1_E(ptr noundef nonnull align 8 dereferenceable(264) %45, ptr noundef getelementptr inbounds (%"class.Stockfish::(anonymous namespace)::Logger", ptr @_ZZN9Stockfish12_GLOBAL__N_16Logger5startERKNSt7__cxx1112basic_stringIcSt11char_traitsIcESaIcEEEE1l, i32 0, i32 2))
  br label %47

47:                                               ; preds = %36, %25
  ret void
}