; Function Attrs: mustprogress nounwind uwtable
define internal fastcc void @_ZN9Stockfish12_GLOBAL__N_16Logger5startERKNSt7__cxx1112basic_stringIcSt11char_traitsIcESaIcEEE(ptr noundef nonnull align 8 dereferenceable(32) %0) unnamed_addr #3 align 2 {
  %2 = load atomic i8, ptr @_ZGVZN9Stockfish12_GLOBAL__N_16Logger5startERKNSt7__cxx1112basic_stringIcSt11char_traitsIcESaIcEEEE1l acquire, align 8
  %3 = icmp eq i8 %2, 0
  br i1 %3, label %4, label %8, !prof !10

4:                                                ; preds = %1
  %5 = tail call i32 @__cxa_guard_acquire(ptr nonnull @_ZGVZN9Stockfish12_GLOBAL__N_16Logger5startERKNSt7__cxx1112basic_stringIcSt11char_traitsIcESaIcEEEE1l) #21
  %.not = icmp eq i32 %5, 0
  br i1 %.not, label %8, label %6

6:                                                ; preds = %4
  tail call fastcc void @_ZN9Stockfish12_GLOBAL__N_16LoggerC2Ev()
  %7 = tail call i32 @__cxa_atexit(ptr nonnull @_ZN9Stockfish12_GLOBAL__N_16LoggerD2Ev, ptr nonnull @_ZZN9Stockfish12_GLOBAL__N_16Logger5startERKNSt7__cxx1112basic_stringIcSt11char_traitsIcESaIcEEEE1l, ptr nonnull @__dso_handle) #21
  tail call void @__cxa_guard_release(ptr nonnull @_ZGVZN9Stockfish12_GLOBAL__N_16Logger5startERKNSt7__cxx1112basic_stringIcSt11char_traitsIcESaIcEEEE1l) #21
  br label %8

8:                                                ; preds = %6, %4, %1
  %9 = tail call noundef zeroext i1 @_ZNSt14basic_ofstreamIcSt11char_traitsIcEE7is_openEv(ptr noundef nonnull align 8 dereferenceable(248) @_ZZN9Stockfish12_GLOBAL__N_16Logger5startERKNSt7__cxx1112basic_stringIcSt11char_traitsIcESaIcEEEE1l) #21
  br i1 %9, label %10, label %23

10:                                               ; preds = %8
  %11 = load ptr, ptr @_ZSt4cout, align 8
  %12 = getelementptr i8, ptr %11, i64 -24
  %13 = load i64, ptr %12, align 8
  %14 = getelementptr inbounds i8, ptr @_ZSt4cout, i64 %13
  %15 = load ptr, ptr getelementptr inbounds (%"class.Stockfish::(anonymous namespace)::Logger", ptr @_ZZN9Stockfish12_GLOBAL__N_16Logger5startERKNSt7__cxx1112basic_stringIcSt11char_traitsIcESaIcEEEE1l, i64 0, i32 2, i32 1), align 8
  %16 = tail call noundef ptr @_ZNSt9basic_iosIcSt11char_traitsIcEE5rdbufEPSt15basic_streambufIcS1_E(ptr noundef nonnull align 8 dereferenceable(264) %14, ptr noundef %15) #21
  %17 = load ptr, ptr @_ZSt3cin, align 8
  %18 = getelementptr i8, ptr %17, i64 -24
  %19 = load i64, ptr %18, align 8
  %20 = getelementptr inbounds i8, ptr @_ZSt3cin, i64 %19
  %21 = load ptr, ptr getelementptr inbounds (%"class.Stockfish::(anonymous namespace)::Logger", ptr @_ZZN9Stockfish12_GLOBAL__N_16Logger5startERKNSt7__cxx1112basic_stringIcSt11char_traitsIcESaIcEEEE1l, i64 0, i32 1, i32 1), align 8
  %22 = tail call noundef ptr @_ZNSt9basic_iosIcSt11char_traitsIcEE5rdbufEPSt15basic_streambufIcS1_E(ptr noundef nonnull align 8 dereferenceable(264) %20, ptr noundef %21) #21
  tail call void @_ZNSt14basic_ofstreamIcSt11char_traitsIcEE5closeEv(ptr noundef nonnull align 8 dereferenceable(248) @_ZZN9Stockfish12_GLOBAL__N_16Logger5startERKNSt7__cxx1112basic_stringIcSt11char_traitsIcESaIcEEEE1l) #21
  br label %23

23:                                               ; preds = %10, %8
  %24 = tail call noundef zeroext i1 @_ZNKSt7__cxx1112basic_stringIcSt11char_traitsIcESaIcEE5emptyEv(ptr noundef nonnull align 8 dereferenceable(32) %0) #21
  br i1 %24, label %42, label %25

25:                                               ; preds = %23
  tail call void @_ZNSt14basic_ofstreamIcSt11char_traitsIcEE4openERKNSt7__cxx1112basic_stringIcS1_SaIcEEESt13_Ios_Openmode(ptr noundef nonnull align 8 dereferenceable(248) @_ZZN9Stockfish12_GLOBAL__N_16Logger5startERKNSt7__cxx1112basic_stringIcSt11char_traitsIcESaIcEEEE1l, ptr noundef nonnull align 8 dereferenceable(32) %0, i32 noundef 16) #21
  %26 = tail call noundef zeroext i1 @_ZNSt14basic_ofstreamIcSt11char_traitsIcEE7is_openEv(ptr noundef nonnull align 8 dereferenceable(248) @_ZZN9Stockfish12_GLOBAL__N_16Logger5startERKNSt7__cxx1112basic_stringIcSt11char_traitsIcESaIcEEEE1l) #21
  br i1 %26, label %31, label %27

27:                                               ; preds = %25
  %28 = tail call noundef nonnull align 8 dereferenceable(8) ptr @_ZStlsISt11char_traitsIcEERSt13basic_ostreamIcT_ES5_PKc(ptr noundef nonnull align 8 dereferenceable(8) @_ZSt4cerr, ptr noundef nonnull @.str.34) #21
  %29 = tail call noundef nonnull align 8 dereferenceable(8) ptr @_ZStlsIcSt11char_traitsIcESaIcEERSt13basic_ostreamIT_T0_ES7_RKNSt7__cxx1112basic_stringIS4_S5_T1_EE(ptr noundef nonnull align 8 dereferenceable(8) %28, ptr noundef nonnull align 8 dereferenceable(32) %0) #21
  %30 = tail call noundef nonnull align 8 dereferenceable(8) ptr @_ZNSolsEPFRSoS_E(ptr noundef nonnull align 8 dereferenceable(8) %29, ptr noundef nonnull @_ZSt4endlIcSt11char_traitsIcEERSt13basic_ostreamIT_T0_ES6_) #21
  tail call void @exit(i32 noundef 1) #22
  unreachable

31:                                               ; preds = %25
  %32 = load ptr, ptr @_ZSt3cin, align 8
  %33 = getelementptr i8, ptr %32, i64 -24
  %34 = load i64, ptr %33, align 8
  %35 = getelementptr inbounds i8, ptr @_ZSt3cin, i64 %34
  %36 = tail call noundef ptr @_ZNSt9basic_iosIcSt11char_traitsIcEE5rdbufEPSt15basic_streambufIcS1_E(ptr noundef nonnull align 8 dereferenceable(264) %35, ptr noundef nonnull getelementptr inbounds (%"class.Stockfish::(anonymous namespace)::Logger", ptr @_ZZN9Stockfish12_GLOBAL__N_16Logger5startERKNSt7__cxx1112basic_stringIcSt11char_traitsIcESaIcEEEE1l, i64 0, i32 1)) #21
  %37 = load ptr, ptr @_ZSt4cout, align 8
  %38 = getelementptr i8, ptr %37, i64 -24
  %39 = load i64, ptr %38, align 8
  %40 = getelementptr inbounds i8, ptr @_ZSt4cout, i64 %39
  %41 = tail call noundef ptr @_ZNSt9basic_iosIcSt11char_traitsIcEE5rdbufEPSt15basic_streambufIcS1_E(ptr noundef nonnull align 8 dereferenceable(264) %40, ptr noundef nonnull getelementptr inbounds (%"class.Stockfish::(anonymous namespace)::Logger", ptr @_ZZN9Stockfish12_GLOBAL__N_16Logger5startERKNSt7__cxx1112basic_stringIcSt11char_traitsIcESaIcEEEE1l, i64 0, i32 2)) #21
  br label %42

42:                                               ; preds = %31, %23
  ret void
}